target datalayout = "e-m:e-p270:32:32-p271:32:32-p272:64:64-i64:64-i128:128-f80:128-n8:16:32:64-S128"
target triple = "x86_64-unknown-linux-gnu"

%"class.std::__cxx11::basic_string" = type { %"struct.std::__cxx11::basic_string<char>::_Alloc_hider", i64, %union.anon }
%"struct.std::__cxx11::basic_string<char>::_Alloc_hider" = type { ptr }
%union.anon = type { i64, [8 x i8] }
%"struct.glTF2::Object" = type { ptr, i32, i32, %"class.std::__cxx11::basic_string", %"class.std::__cxx11::basic_string", %"struct.glTF2::CustomExtension", %"struct.glTF2::Extras" }
%"struct.glTF2::CustomExtension" = type { %"class.std::__cxx11::basic_string", %"struct.glTFCommon::Nullable", %"struct.glTFCommon::Nullable.3", %"struct.glTFCommon::Nullable.5", %"struct.glTFCommon::Nullable.7", %"struct.glTFCommon::Nullable.9", [6 x i8], %"struct.glTFCommon::Nullable.10" }
%"struct.glTFCommon::Nullable" = type <{ %"class.std::__cxx11::basic_string", i8, [7 x i8] }>
%"struct.glTFCommon::Nullable.3" = type <{ double, i8, [7 x i8] }>
%"struct.glTFCommon::Nullable.5" = type <{ i64, i8, [7 x i8] }>
%"struct.glTFCommon::Nullable.7" = type <{ i64, i8, [7 x i8] }>
%"struct.glTFCommon::Nullable.9" = type { i8, i8 }
%"struct.glTFCommon::Nullable.10" = type <{ %"class.std::vector.11", i8, [7 x i8] }>
%"class.std::vector.11" = type { %"struct.std::_Vector_base.12" }
%"struct.std::_Vector_base.12" = type { %"struct.std::_Vector_base<glTF2::CustomExtension, std::allocator<glTF2::CustomExtension>>::_Vector_impl" }
%"struct.std::_Vector_base<glTF2::CustomExtension, std::allocator<glTF2::CustomExtension>>::_Vector_impl" = type { %"struct.std::_Vector_base<glTF2::CustomExtension, std::allocator<glTF2::CustomExtension>>::_Vector_impl_data" }
%"struct.std::_Vector_base<glTF2::CustomExtension, std::allocator<glTF2::CustomExtension>>::_Vector_impl_data" = type { ptr, ptr, ptr }
%"struct.glTF2::Extras" = type { %"class.std::vector.11" }
%"struct.std::_Vector_base.97" = type { %"struct.std::_Vector_base<glTF2::Mesh *, std::allocator<glTF2::Mesh *>>::_Vector_impl" }
%"struct.std::_Vector_base<glTF2::Mesh *, std::allocator<glTF2::Mesh *>>::_Vector_impl" = type { %"struct.std::_Vector_base<glTF2::Mesh *, std::allocator<glTF2::Mesh *>>::_Vector_impl_data" }
%"struct.std::_Vector_base<glTF2::Mesh *, std::allocator<glTF2::Mesh *>>::_Vector_impl_data" = type { ptr, ptr, ptr }
%"struct.std::_Vector_base.103" = type { %"struct.std::_Vector_base<glTF2::Node *, std::allocator<glTF2::Node *>>::_Vector_impl" }
%"struct.std::_Vector_base<glTF2::Node *, std::allocator<glTF2::Node *>>::_Vector_impl" = type { %"struct.std::_Vector_base<glTF2::Node *, std::allocator<glTF2::Node *>>::_Vector_impl_data" }
%"struct.std::_Vector_base<glTF2::Node *, std::allocator<glTF2::Node *>>::_Vector_impl_data" = type { ptr, ptr, ptr }
%"class.glTFCommon::Ref.213" = type <{ ptr, i32, [4 x i8] }>
%"class.glTFCommon::Ref.225" = type <{ ptr, i32, [4 x i8] }>
%"struct.glTF2::Node" = type { %"struct.glTF2::Object", %"class.std::vector.191", %"class.std::vector.196", %"struct.glTFCommon::Nullable.201", %"struct.glTFCommon::Nullable.203", %"struct.glTFCommon::Nullable.205", %"struct.glTFCommon::Nullable.203", %"class.glTFCommon::Ref.207", %"class.glTFCommon::Ref.209", %"class.std::vector.191", %"class.glTFCommon::Ref.211", %"class.std::__cxx11::basic_string", %"class.glTFCommon::Ref.213" }
%"class.std::vector.196" = type { %"struct.std::_Vector_base.197" }
%"struct.std::_Vector_base.197" = type { %"struct.std::_Vector_base<glTFCommon::Ref<glTF2::Mesh>, std::allocator<glTFCommon::Ref<glTF2::Mesh>>>::_Vector_impl" }
%"struct.std::_Vector_base<glTFCommon::Ref<glTF2::Mesh>, std::allocator<glTFCommon::Ref<glTF2::Mesh>>>::_Vector_impl" = type { %"struct.std::_Vector_base<glTFCommon::Ref<glTF2::Mesh>, std::allocator<glTFCommon::Ref<glTF2::Mesh>>>::_Vector_impl_data" }
%"struct.std::_Vector_base<glTFCommon::Ref<glTF2::Mesh>, std::allocator<glTFCommon::Ref<glTF2::Mesh>>>::_Vector_impl_data" = type { ptr, ptr, ptr }
%"struct.glTFCommon::Nullable.201" = type <{ [16 x float], i8, [3 x i8] }>
%"struct.glTFCommon::Nullable.205" = type <{ [4 x float], i8, [3 x i8] }>
%"struct.glTFCommon::Nullable.203" = type <{ [3 x float], i8, [3 x i8] }>
%"class.glTFCommon::Ref.207" = type <{ ptr, i32, [4 x i8] }>
%"class.glTFCommon::Ref.209" = type <{ ptr, i32, [4 x i8] }>
%"class.std::vector.191" = type { %"struct.std::_Vector_base.192" }
%"struct.std::_Vector_base.192" = type { %"struct.std::_Vector_base<glTFCommon::Ref<glTF2::Node>, std::allocator<glTFCommon::Ref<glTF2::Node>>>::_Vector_impl" }
%"struct.std::_Vector_base<glTFCommon::Ref<glTF2::Node>, std::allocator<glTFCommon::Ref<glTF2::Node>>>::_Vector_impl" = type { %"struct.std::_Vector_base<glTFCommon::Ref<glTF2::Node>, std::allocator<glTFCommon::Ref<glTF2::Node>>>::_Vector_impl_data" }
%"struct.std::_Vector_base<glTFCommon::Ref<glTF2::Node>, std::allocator<glTFCommon::Ref<glTF2::Node>>>::_Vector_impl_data" = type { ptr, ptr, ptr }
%"class.glTFCommon::Ref.211" = type <{ ptr, i32, [4 x i8] }>

; Function Attrs: mustprogress nounwind uwtable
define linkonce_odr hidden noundef nonnull align 8 dereferenceable(8) ptr @_ZNSt6vectorIPN5glTF24MeshESaIS2_EEixEm(ptr noundef nonnull align 8 dereferenceable(24) %this, i64 noundef %__n) #0 comdat align 2 {
entry:
  %this.addr = alloca ptr, align 8
  %__n.addr = alloca i64, align 8
  store ptr %this, ptr %this.addr, align 8
  store i64 %__n, ptr %__n.addr, align 8
  %this1 = load ptr, ptr %this.addr, align 8
  %_M_impl = getelementptr inbounds %"struct.std::_Vector_base.97", ptr %this1, i32 0, i32 0
  %_M_start = getelementptr inbounds %"struct.std::_Vector_base<glTF2::Mesh *, std::allocator<glTF2::Mesh *>>::_Vector_impl_data", ptr %_M_impl, i32 0, i32 0
  %0 = load ptr, ptr %_M_start, align 8
  %1 = load i64, ptr %__n.addr, align 8
  %add.ptr = getelementptr inbounds ptr, ptr %0, i64 %1
  ret ptr %add.ptr
}

; Function Attrs: mustprogress nounwind uwtable
define linkonce_odr hidden noundef nonnull align 8 dereferenceable(8) ptr @_ZNSt6vectorIPN5glTF24NodeESaIS2_EEixEm(ptr noundef nonnull align 8 dereferenceable(24) %this, i64 noundef %__n) #0 comdat align 2 {
entry:
  %this.addr = alloca ptr, align 8
  %__n.addr = alloca i64, align 8
  store ptr %this, ptr %this.addr, align 8
  store i64 %__n, ptr %__n.addr, align 8
  %this1 = load ptr, ptr %this.addr, align 8
  %_M_impl = getelementptr inbounds %"struct.std::_Vector_base.103", ptr %this1, i32 0, i32 0
  %_M_start = getelementptr inbounds %"struct.std::_Vector_base<glTF2::Node *, std::allocator<glTF2::Node *>>::_Vector_impl_data", ptr %_M_impl, i32 0, i32 0
  %0 = load ptr, ptr %_M_start, align 8
  %1 = load i64, ptr %__n.addr, align 8
  %add.ptr = getelementptr inbounds ptr, ptr %0, i64 %1
  ret ptr %add.ptr
}

; Function Attrs: mustprogress nounwind uwtable
define linkonce_odr hidden noundef nonnull align 8 dereferenceable(12) ptr @_ZNSt6vectorIN10glTFCommon3RefIN5glTF24NodeEEESaIS4_EEixEm(ptr noundef nonnull align 8 dereferenceable(24) %this, i64 noundef %__n) #0 comdat align 2 {
entry:
  %this.addr = alloca ptr, align 8
  %__n.addr = alloca i64, align 8
  store ptr %this, ptr %this.addr, align 8
  store i64 %__n, ptr %__n.addr, align 8
  %this1 = load ptr, ptr %this.addr, align 8
  %_M_impl = getelementptr inbounds %"struct.std::_Vector_base.192", ptr %this1, i32 0, i32 0
  %_M_start = getelementptr inbounds %"struct.std::_Vector_base<glTFCommon::Ref<glTF2::Node>, std::allocator<glTFCommon::Ref<glTF2::Node>>>::_Vector_impl_data", ptr %_M_impl, i32 0, i32 0
  %0 = load ptr, ptr %_M_start, align 8
  %1 = load i64, ptr %__n.addr, align 8
  %add.ptr = getelementptr inbounds %"class.glTFCommon::Ref.213", ptr %0, i64 %1
  ret ptr %add.ptr
}

; Function Attrs: mustprogress nounwind uwtable
define linkonce_odr hidden noundef i64 @_ZNKSt6vectorIN10glTFCommon3RefIN5glTF24NodeEEESaIS4_EE4sizeEv(ptr noundef nonnull align 8 dereferenceable(24) %this) #0 comdat align 2 {
entry:
  %this.addr = alloca ptr, align 8
  store ptr %this, ptr %this.addr, align 8
  %this1 = load ptr, ptr %this.addr, align 8
  %_M_impl = getelementptr inbounds %"struct.std::_Vector_base.192", ptr %this1, i32 0, i32 0
  %_M_finish = getelementptr inbounds %"struct.std::_Vector_base<glTFCommon::Ref<glTF2::Node>, std::allocator<glTFCommon::Ref<glTF2::Node>>>::_Vector_impl_data", ptr %_M_impl, i32 0, i32 1
  %0 = load ptr, ptr %_M_finish, align 8
  %_M_impl2 = getelementptr inbounds %"struct.std::_Vector_base.192", ptr %this1, i32 0, i32 0
  %_M_start = getelementptr inbounds %"struct.std::_Vector_base<glTFCommon::Ref<glTF2::Node>, std::allocator<glTFCommon::Ref<glTF2::Node>>>::_Vector_impl_data", ptr %_M_impl2, i32 0, i32 0
  %1 = load ptr, ptr %_M_start, align 8
  %sub.ptr.lhs.cast = ptrtoint ptr %0 to i64
  %sub.ptr.rhs.cast = ptrtoint ptr %1 to i64
  %sub.ptr.sub = sub i64 %sub.ptr.lhs.cast, %sub.ptr.rhs.cast
  %sub.ptr.div = sdiv exact i64 %sub.ptr.sub, 16
  ret i64 %sub.ptr.div
}

; Function Attrs: mustprogress nounwind uwtable
define linkonce_odr hidden noundef ptr @_ZN10glTFCommon3RefIN5glTF24MeshEEptEv(ptr noundef nonnull align 8 dereferenceable(12) %this) #0 comdat align 2 {
entry:
  %this.addr = alloca ptr, align 8
  store ptr %this, ptr %this.addr, align 8
  %this1 = load ptr, ptr %this.addr, align 8
  %vector = getelementptr inbounds %"class.glTFCommon::Ref.225", ptr %this1, i32 0, i32 0
  %0 = load ptr, ptr %vector, align 8
  %index = getelementptr inbounds %"class.glTFCommon::Ref.225", ptr %this1, i32 0, i32 1
  %1 = load i32, ptr %index, align 8
  %conv = zext i32 %1 to i64
  %call = call noundef nonnull align 8 dereferenceable(8) ptr @_ZNSt6vectorIPN5glTF24MeshESaIS2_EEixEm(ptr noundef nonnull align 8 dereferenceable(24) %0, i64 noundef %conv) #18
  %2 = load ptr, ptr %call, align 8
  ret ptr %2
}

; Function Attrs: mustprogress nounwind uwtable
define linkonce_odr hidden noundef nonnull align 8 dereferenceable(12) ptr @_ZNSt6vectorIN10glTFCommon3RefIN5glTF24MeshEEESaIS4_EEixEm(ptr noundef nonnull align 8 dereferenceable(24) %this, i64 noundef %__n) #0 comdat align 2 {
entry:
  %this.addr = alloca ptr, align 8
  %__n.addr = alloca i64, align 8
  store ptr %this, ptr %this.addr, align 8
  store i64 %__n, ptr %__n.addr, align 8
  %this1 = load ptr, ptr %this.addr, align 8
  %_M_impl = getelementptr inbounds %"struct.std::_Vector_base.197", ptr %this1, i32 0, i32 0
  %_M_start = getelementptr inbounds %"struct.std::_Vector_base<glTFCommon::Ref<glTF2::Mesh>, std::allocator<glTFCommon::Ref<glTF2::Mesh>>>::_Vector_impl_data", ptr %_M_impl, i32 0, i32 0
  %0 = load ptr, ptr %_M_start, align 8
  %1 = load i64, ptr %__n.addr, align 8
  %add.ptr = getelementptr inbounds %"class.glTFCommon::Ref.225", ptr %0, i64 %1
  ret ptr %add.ptr
}

; Function Attrs: mustprogress nounwind uwtable
define linkonce_odr hidden noundef i64 @_ZNKSt6vectorIN10glTFCommon3RefIN5glTF24MeshEEESaIS4_EE4sizeEv(ptr noundef nonnull align 8 dereferenceable(24) %this) #0 comdat align 2 {
entry:
  %this.addr = alloca ptr, align 8
  store ptr %this, ptr %this.addr, align 8
  %this1 = load ptr, ptr %this.addr, align 8
  %_M_impl = getelementptr inbounds %"struct.std::_Vector_base.197", ptr %this1, i32 0, i32 0
  %_M_finish = getelementptr inbounds %"struct.std::_Vector_base<glTFCommon::Ref<glTF2::Mesh>, std::allocator<glTFCommon::Ref<glTF2::Mesh>>>::_Vector_impl_data", ptr %_M_impl, i32 0, i32 1
  %0 = load ptr, ptr %_M_finish, align 8
  %_M_impl2 = getelementptr inbounds %"struct.std::_Vector_base.197", ptr %this1, i32 0, i32 0
  %_M_start = getelementptr inbounds %"struct.std::_Vector_base<glTFCommon::Ref<glTF2::Mesh>, std::allocator<glTFCommon::Ref<glTF2::Mesh>>>::_Vector_impl_data", ptr %_M_impl2, i32 0, i32 0
  %1 = load ptr, ptr %_M_start, align 8
  %sub.ptr.lhs.cast = ptrtoint ptr %0 to i64
  %sub.ptr.rhs.cast = ptrtoint ptr %1 to i64
  %sub.ptr.sub = sub i64 %sub.ptr.lhs.cast, %sub.ptr.rhs.cast
  %sub.ptr.div = sdiv exact i64 %sub.ptr.sub, 16
  ret i64 %sub.ptr.div
}

; Function Attrs: mustprogress nounwind uwtable
define linkonce_odr hidden noundef ptr @_ZN10glTFCommon3RefIN5glTF24NodeEEptEv(ptr noundef nonnull align 8 dereferenceable(12) %this) #0 comdat align 2 {
entry:
  %this.addr = alloca ptr, align 8
  store ptr %this, ptr %this.addr, align 8
  %this1 = load ptr, ptr %this.addr, align 8
  %vector = getelementptr inbounds %"class.glTFCommon::Ref.213", ptr %this1, i32 0, i32 0
  %0 = load ptr, ptr %vector, align 8
  %index = getelementptr inbounds %"class.glTFCommon::Ref.213", ptr %this1, i32 0, i32 1
  %1 = load i32, ptr %index, align 8
  %conv = zext i32 %1 to i64
  %call = call noundef nonnull align 8 dereferenceable(8) ptr @_ZNSt6vectorIPN5glTF24NodeESaIS2_EEixEm(ptr noundef nonnull align 8 dereferenceable(24) %0, i64 noundef %conv) #18
  %2 = load ptr, ptr %call, align 8
  ret ptr %2
}

; Function Attrs: mustprogress uwtable
define hidden noundef zeroext i1 @_Z12FindMeshNodeRN10glTFCommon3RefIN5glTF24NodeEEES4_RKNSt7__cxx1112basic_stringIcSt11char_traitsIcESaIcEEE(ptr noundef nonnull align 8 dereferenceable(12) %nodeIn, ptr noundef nonnull align 8 dereferenceable(12) %meshNode, ptr noundef nonnull align 8 dereferenceable(32) %meshID) #3 {
entry:
  %retval = alloca i1, align 1
  %nodeIn.addr = alloca ptr, align 8
  %meshNode.addr = alloca ptr, align 8
  %meshID.addr = alloca ptr, align 8
  %i = alloca i32, align 4
  %i9 = alloca i32, align 4
  store ptr %nodeIn, ptr %nodeIn.addr, align 8
  store ptr %meshNode, ptr %meshNode.addr, align 8
  store ptr %meshID, ptr %meshID.addr, align 8
  store i32 0, ptr %i, align 4
  br label %for.cond

for.cond:                                         ; preds = %for.inc, %entry
  %0 = load i32, ptr %i, align 4
  %conv = zext i32 %0 to i64
  %1 = load ptr, ptr %nodeIn.addr, align 8
  %call = call noundef ptr @_ZN10glTFCommon3RefIN5glTF24NodeEEptEv(ptr noundef nonnull align 8 dereferenceable(12) %1)
  %meshes = getelementptr inbounds %"struct.glTF2::Node", ptr %call, i32 0, i32 2
  %call1 = call noundef i64 @_ZNKSt6vectorIN10glTFCommon3RefIN5glTF24MeshEEESaIS4_EE4sizeEv(ptr noundef nonnull align 8 dereferenceable(24) %meshes) #18
  %cmp = icmp ult i64 %conv, %call1
  br i1 %cmp, label %for.body, label %for.end

for.body:                                         ; preds = %for.cond
  %2 = load ptr, ptr %meshID.addr, align 8
  %3 = load ptr, ptr %nodeIn.addr, align 8
  %call2 = call noundef ptr @_ZN10glTFCommon3RefIN5glTF24NodeEEptEv(ptr noundef nonnull align 8 dereferenceable(12) %3)
  %meshes3 = getelementptr inbounds %"struct.glTF2::Node", ptr %call2, i32 0, i32 2
  %4 = load i32, ptr %i, align 4
  %conv4 = zext i32 %4 to i64
  %call5 = call noundef nonnull align 8 dereferenceable(12) ptr @_ZNSt6vectorIN10glTFCommon3RefIN5glTF24MeshEEESaIS4_EEixEm(ptr noundef nonnull align 8 dereferenceable(24) %meshes3, i64 noundef %conv4) #18
  %call6 = call noundef ptr @_ZN10glTFCommon3RefIN5glTF24MeshEEptEv(ptr noundef nonnull align 8 dereferenceable(12) %call5)
  %id = getelementptr inbounds %"struct.glTF2::Object", ptr %call6, i32 0, i32 3
  %call7 = call noundef i32 @_ZNKSt7__cxx1112basic_stringIcSt11char_traitsIcESaIcEE7compareERKS4_(ptr noundef nonnull align 8 dereferenceable(32) %2, ptr noundef nonnull align 8 dereferenceable(32) %id)
  %cmp8 = icmp eq i32 %call7, 0
  br i1 %cmp8, label %if.then, label %if.end

if.then:                                          ; preds = %for.body
  %5 = load ptr, ptr %nodeIn.addr, align 8
  %6 = load ptr, ptr %meshNode.addr, align 8
  call void @llvm.memcpy.p0.p0.i64(ptr align 8 %6, ptr align 8 %5, i64 12, i1 false)
  store i1 true, ptr %retval, align 1
  br label %return

if.end:                                           ; preds = %for.body
  br label %for.inc

for.inc:                                          ; preds = %if.end
  %7 = load i32, ptr %i, align 4
  %inc = add i32 %7, 1
  store i32 %inc, ptr %i, align 4
  br label %for.cond, !llvm.loop !31

for.end:                                          ; preds = %for.cond
  store i32 0, ptr %i9, align 4
  br label %for.cond10

for.cond10:                                       ; preds = %for.inc23, %for.end
  %8 = load i32, ptr %i9, align 4
  %conv11 = zext i32 %8 to i64
  %9 = load ptr, ptr %nodeIn.addr, align 8
  %call12 = call noundef ptr @_ZN10glTFCommon3RefIN5glTF24NodeEEptEv(ptr noundef nonnull align 8 dereferenceable(12) %9)
  %children = getelementptr inbounds %"struct.glTF2::Node", ptr %call12, i32 0, i32 1
  %call13 = call noundef i64 @_ZNKSt6vectorIN10glTFCommon3RefIN5glTF24NodeEEESaIS4_EE4sizeEv(ptr noundef nonnull align 8 dereferenceable(24) %children) #18
  %cmp14 = icmp ult i64 %conv11, %call13
  br i1 %cmp14, label %for.body15, label %for.end25

for.body15:                                       ; preds = %for.cond10
  %10 = load ptr, ptr %nodeIn.addr, align 8
  %call16 = call noundef ptr @_ZN10glTFCommon3RefIN5glTF24NodeEEptEv(ptr noundef nonnull align 8 dereferenceable(12) %10)
  %children17 = getelementptr inbounds %"struct.glTF2::Node", ptr %call16, i32 0, i32 1
  %11 = load i32, ptr %i9, align 4
  %conv18 = zext i32 %11 to i64
  %call19 = call noundef nonnull align 8 dereferenceable(12) ptr @_ZNSt6vectorIN10glTFCommon3RefIN5glTF24NodeEEESaIS4_EEixEm(ptr noundef nonnull align 8 dereferenceable(24) %children17, i64 noundef %conv18) #18
  %12 = load ptr, ptr %meshNode.addr, align 8
  %13 = load ptr, ptr %meshID.addr, align 8
  %call20 = call noundef zeroext i1 @_Z12FindMeshNodeRN10glTFCommon3RefIN5glTF24NodeEEES4_RKNSt7__cxx1112basic_stringIcSt11char_traitsIcESaIcEEE(ptr noundef nonnull align 8 dereferenceable(12) %call19, ptr noundef nonnull align 8 dereferenceable(12) %12, ptr noundef nonnull align 8 dereferenceable(32) %13)
  br i1 %call20, label %if.then21, label %if.end22

if.then21:                                        ; preds = %for.body15
  store i1 true, ptr %retval, align 1
  br label %return

if.end22:                                         ; preds = %for.body15
  br label %for.inc23

for.inc23:                                        ; preds = %if.end22
  %14 = load i32, ptr %i9, align 4
  %inc24 = add i32 %14, 1
  store i32 %inc24, ptr %i9, align 4
  br label %for.cond10, !llvm.loop !32

for.end25:                                        ; preds = %for.cond10
  store i1 false, ptr %retval, align 1
  br label %return

return:                                           ; preds = %for.end25, %if.then21, %if.then
  %15 = load i1, ptr %retval, align 1
  ret i1 %15
}